; Function Attrs: mustprogress nounwind uwtable
define dso_local void @_ZN4llvm4yaml6Output17postflightElementEPv(ptr noundef nonnull align 8 dereferenceable(128) %0, ptr readnone captures(none) %1) unnamed_addr #6 align 2 {
  %3 = getelementptr inbounds nuw i8, ptr %0, i64 32
  %4 = load ptr, ptr %3, align 8
  %5 = tail call noundef i64 @_ZNK4llvm15SmallVectorBaseIjE4sizeEv(ptr noundef nonnull align 8 dereferenceable(16) %3) #32
  %6 = getelementptr inbounds i32, ptr %4, i64 %5
  %7 = getelementptr inbounds i8, ptr %6, i64 -4
  %8 = load i32, ptr %7, align 4
  %9 = icmp eq i32 %8, 0
  br i1 %9, label %10, label %16

10:                                               ; preds = %2
  %11 = tail call noundef i64 @_ZNK4llvm15SmallVectorBaseIjE4sizeEv(ptr noundef nonnull align 8 dereferenceable(16) %3) #32
  %12 = add i64 %11, -1
  tail call void @_ZN4llvm15SmallVectorBaseIjE8set_sizeEm(ptr noundef nonnull align 8 dereferenceable(16) %3, i64 noundef %12) #32
  %13 = tail call noundef i64 @_ZNK4llvm15SmallVectorBaseIjE4sizeEv(ptr noundef nonnull align 8 dereferenceable(16) %3) #32
  %14 = add i64 %13, 1
  %15 = tail call noundef i64 @_ZNK4llvm15SmallVectorBaseIjE8capacityEv(ptr noundef nonnull align 8 dereferenceable(16) %3) #32
  %.not.i.i.i = icmp ugt i64 %14, %15
  br i1 %.not.i.i.i, label %.sink.split.sink.split, label %.sink.split

16:                                               ; preds = %2
  %17 = load ptr, ptr %3, align 8
  %18 = tail call noundef i64 @_ZNK4llvm15SmallVectorBaseIjE4sizeEv(ptr noundef nonnull align 8 dereferenceable(16) %3) #32
  %19 = getelementptr inbounds i32, ptr %17, i64 %18
  %20 = getelementptr inbounds i8, ptr %19, i64 -4
  %21 = load i32, ptr %20, align 4
  %22 = icmp eq i32 %21, 2
  br i1 %22, label %23, label %35

23:                                               ; preds = %16
  %24 = tail call noundef i64 @_ZNK4llvm15SmallVectorBaseIjE4sizeEv(ptr noundef nonnull align 8 dereferenceable(16) %3) #32
  %25 = add i64 %24, -1
  tail call void @_ZN4llvm15SmallVectorBaseIjE8set_sizeEm(ptr noundef nonnull align 8 dereferenceable(16) %3, i64 noundef %25) #32
  %26 = tail call noundef i64 @_ZNK4llvm15SmallVectorBaseIjE4sizeEv(ptr noundef nonnull align 8 dereferenceable(16) %3) #32
  %27 = add i64 %26, 1
  %28 = tail call noundef i64 @_ZNK4llvm15SmallVectorBaseIjE8capacityEv(ptr noundef nonnull align 8 dereferenceable(16) %3) #32
  %.not.i.i.i1 = icmp ugt i64 %27, %28
  br i1 %.not.i.i.i1, label %.sink.split.sink.split, label %.sink.split

.sink.split.sink.split:                           ; preds = %23, %10
  %.sink8 = phi i64 [ %14, %10 ], [ %27, %23 ]
  %.sink.ph = phi i32 [ 1, %10 ], [ 3, %23 ]
  %29 = getelementptr inbounds nuw i8, ptr %0, i64 48
  tail call void @_ZN4llvm15SmallVectorBaseIjE8grow_podEPvmm(ptr noundef nonnull align 8 dereferenceable(16) %3, ptr noundef nonnull %29, i64 noundef %.sink8, i64 noundef 4) #32
  br label %.sink.split

.sink.split:                                      ; preds = %.sink.split.sink.split, %23, %10
  %.sink = phi i32 [ 1, %10 ], [ 3, %23 ], [ %.sink.ph, %.sink.split.sink.split ]
  %30 = load ptr, ptr %3, align 8
  %31 = tail call noundef i64 @_ZNK4llvm15SmallVectorBaseIjE4sizeEv(ptr noundef nonnull align 8 dereferenceable(16) %3) #32
  %32 = getelementptr inbounds i32, ptr %30, i64 %31
  store i32 %.sink, ptr %32, align 1
  %33 = tail call noundef i64 @_ZNK4llvm15SmallVectorBaseIjE4sizeEv(ptr noundef nonnull align 8 dereferenceable(16) %3) #32
  %34 = add i64 %33, 1
  tail call void @_ZN4llvm15SmallVectorBaseIjE8set_sizeEm(ptr noundef nonnull align 8 dereferenceable(16) %3, i64 noundef %34) #32
  br label %35

35:                                               ; preds = %.sink.split, %16
  ret void
}